target datalayout = "e-m:e-p270:32:32-p271:32:32-p272:64:64-i64:64-i128:128-f80:128-n8:16:32:64-S128"
target triple = "x86_64-pc-linux-gnu"

; Function Attrs: nounwind uwtable
define i32 @OPENSSL_issetugid() #0 {
  %1 = call i64 @getauxval(i64 noundef 23) #2
  %2 = icmp ne i64 %1, 0
  %3 = zext i1 %2 to i32
  ret i32 %3
}

; Function Attrs: nounwind
declare i64 @getauxval(i64 noundef) #1


!llvm.module.flags = !{!0, !1, !2}

!0 = !{i32 1, !"wchar_size", i32 4}
!1 = !{i32 8, !"PIC Level", i32 2}
!2 = !{i32 7, !"uwtable", i32 2}
